; Function Attrs: null_pointer_is_valid sspstrong uwtable
define internal i32 @dissect_s1ap_NAS_PDU(ptr noundef %0, i32 noundef %1, ptr noundef %2, ptr noundef %3, i32 noundef %4) #0 {
  %6 = alloca ptr, align 8
  call void @llvm.lifetime.start.p0(i64 8, ptr nonnull %6) #8
  store ptr null, ptr %6, align 8
  %7 = call i32 @dissect_per_octet_string(ptr noundef %0, i32 noundef %1, ptr noundef %2, ptr noundef %3, i32 noundef %4, i32 noundef -1, i32 noundef -1, i1 noundef zeroext false, ptr noundef nonnull %6)
  %8 = load ptr, ptr %6, align 8
  %9 = call i32 @tvb_reported_length(ptr noundef %8)
  %10 = icmp ne i32 %9, 0
  %11 = load ptr, ptr @nas_eps_handle, align 8
  %12 = icmp ne ptr %11, null
  %or.cond = select i1 %10, i1 %12, i1 false
  br i1 %or.cond, label %13, label %18

13:                                               ; preds = %5
  %14 = load ptr, ptr %6, align 8
  %15 = getelementptr inbounds nuw i8, ptr %2, i64 16
  %16 = load ptr, ptr %15, align 8
  %17 = call i32 @call_dissector(ptr noundef nonnull %11, ptr noundef %14, ptr noundef %16, ptr noundef %3)
  br label %18

18:                                               ; preds = %13, %5
  call void @llvm.lifetime.end.p0(i64 8, ptr nonnull %6) #8
  ret i32 %7
}